target datalayout = "e-m:e-p270:32:32-p271:32:32-p272:64:64-i64:64-i128:128-f80:128-n8:16:32:64-S128"
target triple = "x86_64-pc-linux-gnu"

%struct._zend_op_array = type { i8, [3 x i8], i32, ptr, ptr, ptr, i32, i32, ptr, ptr, ptr, ptr, i32, i32, i32, i32, ptr, ptr, ptr, ptr, ptr, i32, i32, ptr, ptr, ptr, i32, i32, i32, i32, ptr, ptr, [6 x ptr] }
%struct._zend_func_info = type { i32, i32, %struct._zend_ssa, ptr, ptr, ptr, %struct._zend_ssa_var_info }
%struct._zend_ssa = type { %struct._zend_cfg, i32, i32, ptr, ptr, ptr, ptr }
%struct._zend_cfg = type { i32, i32, ptr, ptr, ptr, i32 }
%struct._zend_ssa_var_info = type { i32, i8, %struct._zend_ssa_range, ptr }
%struct._zend_ssa_range = type { i64, i64, i8, i8 }
%struct._zend_call_graph = type { i32, ptr, ptr }

@zend_func_info_rid = external global i32, align 4

; Function Attrs: nounwind uwtable
define internal void @zend_op_array_collect(ptr noundef %0, ptr noundef %1) #0 {
  %3 = alloca ptr, align 8
  %4 = alloca ptr, align 8
  %5 = alloca ptr, align 8
  %6 = alloca ptr, align 8
  %7 = alloca ptr, align 8
  store ptr %0, ptr %3, align 8
  store ptr %1, ptr %4, align 8
  %8 = load ptr, ptr %4, align 8
  store ptr %8, ptr %5, align 8
  %9 = load ptr, ptr %5, align 8
  %10 = getelementptr inbounds %struct._zend_call_graph, ptr %9, i32 0, i32 2
  %11 = load ptr, ptr %10, align 8
  %12 = load ptr, ptr %5, align 8
  %13 = getelementptr inbounds %struct._zend_call_graph, ptr %12, i32 0, i32 0
  %14 = load i32, ptr %13, align 8
  %15 = sext i32 %14 to i64
  %16 = getelementptr inbounds %struct._zend_func_info, ptr %11, i64 %15
  store ptr %16, ptr %6, align 8
  br label %17

17:                                               ; preds = %2
  %18 = load ptr, ptr %3, align 8
  %19 = getelementptr inbounds %struct._zend_op_array, ptr %18, i32 0, i32 32
  %20 = load i32, ptr @zend_func_info_rid, align 4
  %21 = sext i32 %20 to i64
  %22 = getelementptr inbounds [6 x ptr], ptr %19, i64 0, i64 %21
  store ptr %22, ptr %7, align 8
  %23 = load ptr, ptr %6, align 8
  %24 = load ptr, ptr %7, align 8
  store ptr %23, ptr %24, align 8
  br label %25

25:                                               ; preds = %17
  %26 = load ptr, ptr %3, align 8
  %27 = load ptr, ptr %5, align 8
  %28 = getelementptr inbounds %struct._zend_call_graph, ptr %27, i32 0, i32 1
  %29 = load ptr, ptr %28, align 8
  %30 = load ptr, ptr %5, align 8
  %31 = getelementptr inbounds %struct._zend_call_graph, ptr %30, i32 0, i32 0
  %32 = load i32, ptr %31, align 8
  %33 = sext i32 %32 to i64
  %34 = getelementptr inbounds ptr, ptr %29, i64 %33
  store ptr %26, ptr %34, align 8
  %35 = load ptr, ptr %5, align 8
  %36 = getelementptr inbounds %struct._zend_call_graph, ptr %35, i32 0, i32 0
  %37 = load i32, ptr %36, align 8
  %38 = load ptr, ptr %6, align 8
  %39 = getelementptr inbounds %struct._zend_func_info, ptr %38, i32 0, i32 0
  store i32 %37, ptr %39, align 8
  %40 = load ptr, ptr %5, align 8
  %41 = getelementptr inbounds %struct._zend_call_graph, ptr %40, i32 0, i32 0
  %42 = load i32, ptr %41, align 8
  %43 = add nsw i32 %42, 1
  store i32 %43, ptr %41, align 8
  ret void
}