; Function Attrs: mustprogress nofree norecurse nosync nounwind willreturn memory(readwrite, inaccessiblemem: none) uwtable
define internal void @zend_op_array_collect(ptr noundef %0, ptr nocapture noundef %1) #4 {
  %3 = getelementptr inbounds i8, ptr %1, i64 16
  %4 = load ptr, ptr %3, align 8
  %5 = load i32, ptr %1, align 8
  %6 = sext i32 %5 to i64
  %7 = getelementptr inbounds %struct._zend_func_info, ptr %4, i64 %6
  %8 = getelementptr inbounds i8, ptr %0, i64 192
  %9 = load i32, ptr @zend_func_info_rid, align 4
  %10 = sext i32 %9 to i64
  %11 = getelementptr inbounds [6 x ptr], ptr %8, i64 0, i64 %10
  store ptr %7, ptr %11, align 8
  %12 = getelementptr inbounds i8, ptr %1, i64 8
  %13 = load ptr, ptr %12, align 8
  %14 = load i32, ptr %1, align 8
  %15 = sext i32 %14 to i64
  %16 = getelementptr inbounds ptr, ptr %13, i64 %15
  store ptr %0, ptr %16, align 8
  %17 = load i32, ptr %1, align 8
  store i32 %17, ptr %7, align 8
  %18 = add nsw i32 %17, 1
  store i32 %18, ptr %1, align 8
  ret void
}